target datalayout = "e-m:e-p270:32:32-p271:32:32-p272:64:64-i64:64-i128:128-f80:128-n8:16:32:64-S128"
target triple = "x86_64-pc-linux-gnu"

%struct.dynbuf = type { ptr, i64, i64, i64 }

@.str.15 = private unnamed_addr constant [2 x i8] c"\\\00", align 1

; Function Attrs: nounwind uwtable
define internal ptr @unescape_word(ptr noundef %0) #0 {
  %2 = alloca ptr, align 8
  %3 = alloca ptr, align 8
  %4 = alloca %struct.dynbuf, align 8
  %5 = alloca ptr, align 8
  %6 = alloca i32, align 4
  %7 = alloca i8, align 1
  %8 = alloca i32, align 4
  store ptr %0, ptr %3, align 8, !tbaa !10
  call void @llvm.lifetime.start.p0(i64 32, ptr %4) #5
  call void @llvm.lifetime.start.p0(i64 8, ptr %5) #5
  call void @llvm.lifetime.start.p0(i64 4, ptr %6) #5
  store i32 0, ptr %6, align 4, !tbaa !82
  call void @Curl_dyn_init(ptr noundef %4, i64 noundef 10000)
  %9 = load ptr, ptr %3, align 8, !tbaa !10
  store ptr %9, ptr %5, align 8, !tbaa !10
  br label %10

10:                                               ; preds = %52, %1
  %11 = load ptr, ptr %5, align 8, !tbaa !10
  %12 = load i8, ptr %11, align 1, !tbaa !83
  %13 = icmp ne i8 %12, 0
  br i1 %13, label %14, label %55

14:                                               ; preds = %10
  call void @llvm.lifetime.start.p0(i64 1, ptr %7) #5
  %15 = load ptr, ptr %5, align 8, !tbaa !10
  %16 = load i8, ptr %15, align 1, !tbaa !83
  store i8 %16, ptr %7, align 1, !tbaa !83
  %17 = load i8, ptr %7, align 1, !tbaa !83
  %18 = sext i8 %17 to i32
  %19 = icmp sle i32 %18, 32
  br i1 %19, label %36, label %20

20:                                               ; preds = %14
  %21 = load i8, ptr %7, align 1, !tbaa !83
  %22 = sext i8 %21 to i32
  %23 = icmp eq i32 %22, 127
  br i1 %23, label %36, label %24

24:                                               ; preds = %20
  %25 = load i8, ptr %7, align 1, !tbaa !83
  %26 = sext i8 %25 to i32
  %27 = icmp eq i32 %26, 39
  br i1 %27, label %36, label %28

28:                                               ; preds = %24
  %29 = load i8, ptr %7, align 1, !tbaa !83
  %30 = sext i8 %29 to i32
  %31 = icmp eq i32 %30, 34
  br i1 %31, label %36, label %32

32:                                               ; preds = %28
  %33 = load i8, ptr %7, align 1, !tbaa !83
  %34 = sext i8 %33 to i32
  %35 = icmp eq i32 %34, 92
  br i1 %35, label %36, label %38

36:                                               ; preds = %32, %28, %24, %20, %14
  %37 = call i32 @Curl_dyn_addn(ptr noundef %4, ptr noundef @.str.15, i64 noundef 1)
  store i32 %37, ptr %6, align 4, !tbaa !82
  br label %38

38:                                               ; preds = %36, %32
  %39 = load i32, ptr %6, align 4, !tbaa !82
  %40 = icmp ne i32 %39, 0
  br i1 %40, label %44, label %41

41:                                               ; preds = %38
  %42 = load ptr, ptr %5, align 8, !tbaa !10
  %43 = call i32 @Curl_dyn_addn(ptr noundef %4, ptr noundef %42, i64 noundef 1)
  store i32 %43, ptr %6, align 4, !tbaa !82
  br label %44

44:                                               ; preds = %41, %38
  %45 = load i32, ptr %6, align 4, !tbaa !82
  %46 = icmp ne i32 %45, 0
  br i1 %46, label %47, label %48

47:                                               ; preds = %44
  store ptr null, ptr %2, align 8
  store i32 1, ptr %8, align 4
  br label %49

48:                                               ; preds = %44
  store i32 0, ptr %8, align 4
  br label %49

49:                                               ; preds = %48, %47
  call void @llvm.lifetime.end.p0(i64 1, ptr %7) #5
  %50 = load i32, ptr %8, align 4
  switch i32 %50, label %57 [
    i32 0, label %51
  ]

51:                                               ; preds = %49
  br label %52

52:                                               ; preds = %51
  %53 = load ptr, ptr %5, align 8, !tbaa !10
  %54 = getelementptr inbounds nuw i8, ptr %53, i32 1
  store ptr %54, ptr %5, align 8, !tbaa !10
  br label %10, !llvm.loop !90

55:                                               ; preds = %10
  %56 = call ptr @Curl_dyn_ptr(ptr noundef %4)
  store ptr %56, ptr %2, align 8
  store i32 1, ptr %8, align 4
  br label %57

57:                                               ; preds = %55, %49
  call void @llvm.lifetime.end.p0(i64 4, ptr %6) #5
  call void @llvm.lifetime.end.p0(i64 8, ptr %5) #5
  call void @llvm.lifetime.end.p0(i64 32, ptr %4) #5
  %58 = load ptr, ptr %2, align 8
  ret ptr %58
}