; Function Attrs: nounwind uwtable
define internal fastcc ptr @unescape_word(ptr noundef %0) unnamed_addr #0 {
  %2 = alloca %struct.dynbuf, align 8
  call void @llvm.lifetime.start.p0(i64 32, ptr nonnull %2) #5
  call void @Curl_dyn_init(ptr noundef nonnull %2, i64 noundef 10000) #5
  %3 = load i8, ptr %0, align 1, !tbaa !78
  %.fr3738 = freeze i8 %3
  %.not39 = icmp eq i8 %.fr3738, 0
  br i1 %.not39, label %._crit_edge, label %.lr.ph

4:                                                ; preds = %.thread
  %5 = getelementptr inbounds nuw i8, ptr %.02840, i64 1
  %6 = load i8, ptr %5, align 1, !tbaa !78
  %.fr37 = freeze i8 %6
  %.not = icmp eq i8 %.fr37, 0
  br i1 %.not, label %._crit_edge, label %.lr.ph, !llvm.loop !82

.lr.ph:                                           ; preds = %1, %4
  %.fr3741 = phi i8 [ %.fr37, %4 ], [ %.fr3738, %1 ]
  %.02840 = phi ptr [ %5, %4 ], [ %0, %1 ]
  %7 = add i8 %.fr3741, -127
  %or.cond = icmp ult i8 %7, -94
  br i1 %or.cond, label %8, label %switch.early.test

switch.early.test:                                ; preds = %.lr.ph
  switch i8 %.fr3741, label %.thread [
    i8 92, label %8
    i8 39, label %8
    i8 34, label %8
  ]

8:                                                ; preds = %.lr.ph, %switch.early.test, %switch.early.test, %switch.early.test
  %9 = call i32 @Curl_dyn_addn(ptr noundef nonnull %2, ptr noundef nonnull @.str.15, i64 noundef 1) #5
  %.not30 = icmp eq i32 %9, 0
  br i1 %.not30, label %.thread, label %.thread34

.thread:                                          ; preds = %switch.early.test, %8
  %10 = call i32 @Curl_dyn_addn(ptr noundef nonnull %2, ptr noundef nonnull %.02840, i64 noundef 1) #5
  %.not31 = icmp eq i32 %10, 0
  br i1 %.not31, label %4, label %.thread34

._crit_edge:                                      ; preds = %4, %1
  %11 = call ptr @Curl_dyn_ptr(ptr noundef nonnull %2) #5
  br label %.thread34

.thread34:                                        ; preds = %8, %.thread, %._crit_edge
  %.2 = phi ptr [ %11, %._crit_edge ], [ null, %.thread ], [ null, %8 ]
  call void @llvm.lifetime.end.p0(i64 32, ptr nonnull %2) #5
  ret ptr %.2
}